target datalayout = "e-m:e-p270:32:32-p271:32:32-p272:64:64-i64:64-i128:128-f80:128-n8:16:32:64-S128"
target triple = "x86_64-pc-linux-gnu"

; Function Attrs: null_pointer_is_valid sspstrong uwtable
define internal zeroext i1 @s48write(ptr noundef %0, i64 noundef %1, ptr noundef %2) #0 {
  %4 = alloca ptr, align 8
  %5 = alloca i64, align 8
  %6 = alloca ptr, align 8
  %7 = alloca i16, align 2
  %8 = alloca i32, align 4
  store ptr %0, ptr %4, align 8
  store i64 %1, ptr %5, align 8
  store ptr %2, ptr %6, align 8
  call void @llvm.lifetime.start.p0(i64 2, ptr %7) #11
  %9 = load i64, ptr %5, align 8
  %10 = lshr i64 %9, 32
  %11 = trunc i64 %10 to i16
  store i16 %11, ptr %7, align 2
  call void @llvm.lifetime.start.p0(i64 4, ptr %8) #11
  %12 = load i64, ptr %5, align 8
  %13 = and i64 %12, 4294967295
  %14 = trunc i64 %13 to i32
  store i32 %14, ptr %8, align 4
  %15 = load ptr, ptr %4, align 8
  %16 = load ptr, ptr %6, align 8
  %17 = call zeroext i1 @wtap_dump_file_write(ptr noundef %15, ptr noundef %8, i64 noundef 4, ptr noundef %16)
  br i1 %17, label %18, label %22

18:                                               ; preds = %3
  %19 = load ptr, ptr %4, align 8
  %20 = load ptr, ptr %6, align 8
  %21 = call zeroext i1 @wtap_dump_file_write(ptr noundef %19, ptr noundef %7, i64 noundef 2, ptr noundef %20)
  br label %22

22:                                               ; preds = %18, %3
  %23 = phi i1 [ false, %3 ], [ %21, %18 ]
  call void @llvm.lifetime.end.p0(i64 4, ptr %8) #11
  call void @llvm.lifetime.end.p0(i64 2, ptr %7) #11
  ret i1 %23
}