; Function Attrs: null_pointer_is_valid sspstrong uwtable
define internal fastcc zeroext i1 @s48write(ptr noundef %0, i64 noundef %1, ptr noundef %2) unnamed_addr #0 {
  %4 = alloca i16, align 2
  %5 = alloca i32, align 4
  call void @llvm.lifetime.start.p0(i64 2, ptr nonnull %4) #10
  %6 = lshr i64 %1, 32
  %7 = trunc i64 %6 to i16
  store i16 %7, ptr %4, align 2
  call void @llvm.lifetime.start.p0(i64 4, ptr nonnull %5) #10
  %8 = trunc i64 %1 to i32
  store i32 %8, ptr %5, align 4
  %9 = call zeroext i1 @wtap_dump_file_write(ptr noundef %0, ptr noundef nonnull %5, i64 noundef 4, ptr noundef %2)
  br i1 %9, label %10, label %12

10:                                               ; preds = %3
  %11 = call zeroext i1 @wtap_dump_file_write(ptr noundef %0, ptr noundef nonnull %4, i64 noundef 2, ptr noundef %2)
  br label %12

12:                                               ; preds = %10, %3
  %13 = phi i1 [ false, %3 ], [ %11, %10 ]
  call void @llvm.lifetime.end.p0(i64 4, ptr nonnull %5) #10
  call void @llvm.lifetime.end.p0(i64 2, ptr nonnull %4) #10
  ret i1 %13
}